******************************************************************************
                  TI ARM Linker PC v5.2.6                      
******************************************************************************
>> Linked Fri Feb 05 16:54:40 2016

OUTPUT FILE NAME:   <Hercules_N64_RC_CAR.out>
ENTRY POINT SYMBOL: "_c_int00"  address: 000038f4


MEMORY CONFIGURATION

         name            origin    length      used     unused   attr    fill
----------------------  --------  ---------  --------  --------  ----  --------
  VECTORS               00000000   00000020  00000020  00000000     X
  FLASH0                00000020   001fffe0  00004008  001fbfd8  R  X
  FLASH1                00200000   00200000  00000000  00200000  R  X
  STACKS                08000000   00001500  00000000  00001500  RW  
  RAM                   08001500   0007eb00  00000010  0007eaf0  RW  


SEGMENT ALLOCATION MAP

run origin  load origin   length   init length attrs members
----------  ----------- ---------- ----------- ----- -------
00000000    00000000    0000402c   0000402c    r-x
  00000000    00000000    00000020   00000020    r-x .intvecs
  00000020    00000020    00003de4   00003de4    r-x .text
  00003e08    00003e08    00000200   00000200    r-- .const
  00004008    00004008    00000024   00000024    r-- .cinit
08001500    08001500    00000010   00000000    rw-
  08001500    08001500    00000010   00000000    rw- .data


SECTION ALLOCATION MAP

 output                                  attributes/
section   page    origin      length       input sections
--------  ----  ----------  ----------   ----------------
.intvecs   0    00000000    00000020     
                  00000000    00000020     HL_sys_intvecs.obj (.intvecs)

.text      0    00000020    00003de4     
                  00000020    000009c0     HL_pinmux.obj (.text)
                  000009e0    00000984     HL_system.obj (.text)
                  00001364    00000938     HL_sys_vim.obj (.text)
                  00001c9c    000007c4     HL_esm.obj (.text)
                  00002460    000004a4     MISC.obj (.text)
                  00002904    00000418     HL_sys_core.obj (.text)
                  00002d1c    00000394     HL_sys_mpu.obj (.text)
                  000030b0    0000034c     HL_sys_vim.obj (.text:retain)
                  000033fc    00000180     rtsv7R4_A_be_v3D16_eabi.lib : memcpy32.obj (.text)
                  0000357c    00000178     HL_esm.obj (.text:retain)
                  000036f4    00000124     USER.obj (.text)
                  00003818    000000dc     SPI.obj (.text)
                  000038f4    000000bc     HL_sys_startup.obj (.text:retain)
                  000039b0    000000b0     rtsv7R4_A_be_v3D16_eabi.lib : memset32.obj (.text)
                  00003a60    000000a4                                 : autoinit.obj (.text)
                  00003b04    000000a0     LED.obj (.text)
                  00003ba4    0000009c     rtsv7R4_A_be_v3D16_eabi.lib : copy_decompress_rle.obj (.text)
                  00003c40    00000084                                 : cpy_tbl.obj (.text)
                  00003cc4    00000078                                 : exit.obj (.text)
                  00003d3c    00000074     HL_notification.obj (.text)
                  00003db0    00000024     rtsv7R4_A_be_v3D16_eabi.lib : _lock.obj (.text)
                  00003dd4    00000014                                 : copy_decompress_none.obj (.text:decompress:none)
                  00003de8    00000010     main.obj (.text)
                  00003df8    00000008     rtsv7R4_A_be_v3D16_eabi.lib : copy_decompress_rle.obj (.text:decompress:rle24)
                  00003e00    00000004     HL_sys_phantom.obj (.text:retain)

.const     0    00003e08    00000200     
                  00003e08    00000200     HL_sys_vim.obj (.const:s_vim_init)

.cinit     0    00004008    00000024     
                  00004008    00000011     (.cinit..data.load) [load image, compression = rle]
                  00004019    00000003     --HOLE-- [fill = 0]
                  0000401c    00000008     (__TI_handler_table)
                  00004024    00000008     (__TI_cinit_table)

.data      0    08001500    00000010     UNINITIALIZED
                  08001500    00000008     rtsv7R4_A_be_v3D16_eabi.lib : _lock.obj (.data)
                  08001508    00000008                                 : exit.obj (.data)

.TI.persistent 
*          0    08001500    00000000     UNINITIALIZED


LINKER GENERATED COPY TABLES

__TI_cinit_table @ 00004024 records: 1, size/record: 8, table size: 8
	.data: load addr=00004008, load size=00000011 bytes, run addr=08001500, run size=00000010 bytes, compression=rle


LINKER GENERATED HANDLER TABLE

__TI_handler_table @ 0000401c records: 2, size/record: 4, table size: 8
	index: 0, handler: __TI_decompress_rle24
	index: 1, handler: __TI_decompress_none


GLOBAL SYMBOLS: SORTED ALPHABETICALLY BY Name 

address   name                                
-------   ----                                
00003cc4  C$$EXIT                             
00003b04  InitLEDs                            
00003818  InitSPI                             
00003824  InitSPI1                            
000037c8  Init_Modules                        
000036f4  Init_Pins                           
00003b60  LED_Green                           
00002498  MSC_DelayNOP                        
00002460  MSC_DelayUS                         
000024e0  MSC_IsPrintable                     
00002574  MSC_LowercaseChar                   
000025e0  MSC_ReverseLong                     
000025b0  MSC_Round                           
00002514  MSC_StringCopy                      
00002878  MSC_StringMatch                     
UNDEFED   SHT$$INIT_ARRAY$$Base               
UNDEFED   SHT$$INIT_ARRAY$$Limit              
0000386c  SPI_Parameters1                     
00004024  __TI_CINIT_Base                     
0000402c  __TI_CINIT_Limit                    
0000401c  __TI_Handler_Table_Base             
00004024  __TI_Handler_Table_Limit            
00002d14  __TI_PINIT_Base                     
00002d18  __TI_PINIT_Limit                    
00003a60  __TI_auto_init                      
08001508  __TI_cleanup_ptr                    
00003dd4  __TI_decompress_none                
00003df8  __TI_decompress_rle24               
0800150c  __TI_dtors_ptr                      
00000000  __TI_static_base__                  
000039b0  __aeabi_memclr                      
000039b0  __aeabi_memclr4                     
000039b0  __aeabi_memclr8                     
000033fc  __aeabi_memcpy                      
000033fc  __aeabi_memcpy4                     
000033fc  __aeabi_memcpy8                     
000039b4  __aeabi_memset                      
000039b4  __aeabi_memset4                     
000039b4  __aeabi_memset8                     
ffffffff  __binit__                           
ffffffff  __c_args__                          
000038f4  _c_int00                            
00002cb8  _cacheDisable_                      
00002c80  _cacheEnable_                       
00002c60  _checkMemInitOn_                    
00002b5c  _coreClearAuxiliaryDataFault_       
00002b78  _coreClearAuxiliaryInstructionFault_
00002b24  _coreClearDataFaultAddress_         
00002aec  _coreClearDataFault_                
00002b40  _coreClearInstructionFaultAddress_  
00002b08  _coreClearInstructionFault_         
00002ab4  _coreDisableEventBusExport_         
00002a9c  _coreEnableEventBusExport_          
00002acc  _coreEnableIrqVicOffset_            
00002a7c  _coreEnableVfp_                     
00002b54  _coreGetAuxiliaryDataFault_         
00002b70  _coreGetAuxiliaryInstructionFault_  
00002b1c  _coreGetDataFaultAddress_           
00002ae4  _coreGetDataFault_                  
00002b38  _coreGetInstructionFaultAddress_    
00002b00  _coreGetInstructionFault_           
00002904  _coreInitRegisters_                 
00002a10  _coreInitStackPointer_              
00002cdc  _dCacheInvalidate_                  
00002b8c  _disable_IRQ_interrupt_             
00002b94  _enable_IRQ_interrupt_              
00002b9c  _enable_interrupt_                  
00002ba4  _esmCcmErrorsClear_                 
00002a5c  _getCPSRValue_                      
00002a64  _gotoCPUIdle_                       
00002cf8  _iCacheInvalidate_                  
08001500  _lock                               
00002c2c  _memInit_                           
00003058  _mpuAreRegionsSeparate_             
00003034  _mpuDisableBackgroundRegion_        
00002ffc  _mpuDisable_                        
0000301c  _mpuEnableBackgroundRegion_         
00002fdc  _mpuEnable_                         
0000304c  _mpuGetNumberOfRegions_             
0000307c  _mpuGetRegionBaseAddress_           
0000309c  _mpuGetRegionPermission_            
00003090  _mpuGetRegionType_                  
0000306c  _mpuGetRegion_                      
00002d1c  _mpuInit_                           
00003074  _mpuSetRegionBaseAddress_           
000030a8  _mpuSetRegionSizeRegister_          
00003084  _mpuSetRegionTypeAndPermission_     
00003064  _mpuSetRegion_                      
00003dc8  _nop                                
00003dbc  _register_lock                      
00003db0  _register_unlock                    
08001504  _unlock                             
00003ccc  abort                               
ffffffff  binit                               
00003c40  copy_in                             
00003d74  dmaGroupANotification               
00003d9c  epcCAMFullNotification              
00003da0  epcFIFOFullNotification             
00001eb4  esmActivateNormalOperation          
00002010  esmClearStatus                      
00002084  esmClearStatusBuffer                
0000205c  esmClearStatusUpper                 
00001e5c  esmDisableError                     
00001e88  esmDisableErrorUpper                
00001f0c  esmDisableInterrupt                 
00001f38  esmDisableInterruptUpper            
00001e14  esmEnableError                      
00001e40  esmEnableErrorUpper                 
00001ec4  esmEnableInterrupt                  
00001ef0  esmEnableInterruptUpper             
000021c4  esmEnterSelfTest                    
00001df8  esmError                            
0000229c  esmGetConfigValue                   
000020c0  esmGetStatus                        
0000219c  esmGetStatusBuffer                  
0000214c  esmGetStatusUpper                   
00003d3c  esmGroup1Notification               
00003d50  esmGroup2Notification               
00003d64  esmGroup3Notification               
0000357c  esmHighInterrupt                    
00001c9c  esmInit                             
0000224c  esmSelfTestStatus                   
000020a0  esmSetCounterPreloadValue           
00001f54  esmSetInterruptLevel                
00001fd0  esmSetInterruptLevelUpper           
00001ea4  esmTriggerErrorPinReset             
00003cd8  exit                                
00000d4c  getResetSource                      
00003d88  gioNotification                     
00003de8  main                                
00000b7c  mapClocks                           
000033fc  memcpy                              
000039c0  memset                              
00000020  muxInit                             
00000ac8  periphInit                          
00003e00  phantomInterrupt                    
00000000  resetEntry                          
00000a88  setupFlash                          
000009e0  setupPLL                            
00000e98  systemGetConfigValue                
00000ca8  systemInit                          
00000d1c  systemPowerDown                     
00000a40  trimLPO                             
00001438  vimChannelMap                       
000016a4  vimDisableInterrupt                 
000030b0  vimECCErrorHandler                  
000014dc  vimEnableInterrupt                  
00001750  vimGetConfigValue                   
00001364  vimInit                             


GLOBAL SYMBOLS: SORTED BY Symbol Address 

address   name                                
-------   ----                                
00000000  __TI_static_base__                  
00000000  resetEntry                          
00000020  muxInit                             
000009e0  setupPLL                            
00000a40  trimLPO                             
00000a88  setupFlash                          
00000ac8  periphInit                          
00000b7c  mapClocks                           
00000ca8  systemInit                          
00000d1c  systemPowerDown                     
00000d4c  getResetSource                      
00000e98  systemGetConfigValue                
00001364  vimInit                             
00001438  vimChannelMap                       
000014dc  vimEnableInterrupt                  
000016a4  vimDisableInterrupt                 
00001750  vimGetConfigValue                   
00001c9c  esmInit                             
00001df8  esmError                            
00001e14  esmEnableError                      
00001e40  esmEnableErrorUpper                 
00001e5c  esmDisableError                     
00001e88  esmDisableErrorUpper                
00001ea4  esmTriggerErrorPinReset             
00001eb4  esmActivateNormalOperation          
00001ec4  esmEnableInterrupt                  
00001ef0  esmEnableInterruptUpper             
00001f0c  esmDisableInterrupt                 
00001f38  esmDisableInterruptUpper            
00001f54  esmSetInterruptLevel                
00001fd0  esmSetInterruptLevelUpper           
00002010  esmClearStatus                      
0000205c  esmClearStatusUpper                 
00002084  esmClearStatusBuffer                
000020a0  esmSetCounterPreloadValue           
000020c0  esmGetStatus                        
0000214c  esmGetStatusUpper                   
0000219c  esmGetStatusBuffer                  
000021c4  esmEnterSelfTest                    
0000224c  esmSelfTestStatus                   
0000229c  esmGetConfigValue                   
00002460  MSC_DelayUS                         
00002498  MSC_DelayNOP                        
000024e0  MSC_IsPrintable                     
00002514  MSC_StringCopy                      
00002574  MSC_LowercaseChar                   
000025b0  MSC_Round                           
000025e0  MSC_ReverseLong                     
00002878  MSC_StringMatch                     
00002904  _coreInitRegisters_                 
00002a10  _coreInitStackPointer_              
00002a5c  _getCPSRValue_                      
00002a64  _gotoCPUIdle_                       
00002a7c  _coreEnableVfp_                     
00002a9c  _coreEnableEventBusExport_          
00002ab4  _coreDisableEventBusExport_         
00002acc  _coreEnableIrqVicOffset_            
00002ae4  _coreGetDataFault_                  
00002aec  _coreClearDataFault_                
00002b00  _coreGetInstructionFault_           
00002b08  _coreClearInstructionFault_         
00002b1c  _coreGetDataFaultAddress_           
00002b24  _coreClearDataFaultAddress_         
00002b38  _coreGetInstructionFaultAddress_    
00002b40  _coreClearInstructionFaultAddress_  
00002b54  _coreGetAuxiliaryDataFault_         
00002b5c  _coreClearAuxiliaryDataFault_       
00002b70  _coreGetAuxiliaryInstructionFault_  
00002b78  _coreClearAuxiliaryInstructionFault_
00002b8c  _disable_IRQ_interrupt_             
00002b94  _enable_IRQ_interrupt_              
00002b9c  _enable_interrupt_                  
00002ba4  _esmCcmErrorsClear_                 
00002c2c  _memInit_                           
00002c60  _checkMemInitOn_                    
00002c80  _cacheEnable_                       
00002cb8  _cacheDisable_                      
00002cdc  _dCacheInvalidate_                  
00002cf8  _iCacheInvalidate_                  
00002d14  __TI_PINIT_Base                     
00002d18  __TI_PINIT_Limit                    
00002d1c  _mpuInit_                           
00002fdc  _mpuEnable_                         
00002ffc  _mpuDisable_                        
0000301c  _mpuEnableBackgroundRegion_         
00003034  _mpuDisableBackgroundRegion_        
0000304c  _mpuGetNumberOfRegions_             
00003058  _mpuAreRegionsSeparate_             
00003064  _mpuSetRegion_                      
0000306c  _mpuGetRegion_                      
00003074  _mpuSetRegionBaseAddress_           
0000307c  _mpuGetRegionBaseAddress_           
00003084  _mpuSetRegionTypeAndPermission_     
00003090  _mpuGetRegionType_                  
0000309c  _mpuGetRegionPermission_            
000030a8  _mpuSetRegionSizeRegister_          
000030b0  vimECCErrorHandler                  
000033fc  __aeabi_memcpy                      
000033fc  __aeabi_memcpy4                     
000033fc  __aeabi_memcpy8                     
000033fc  memcpy                              
0000357c  esmHighInterrupt                    
000036f4  Init_Pins                           
000037c8  Init_Modules                        
00003818  InitSPI                             
00003824  InitSPI1                            
0000386c  SPI_Parameters1                     
000038f4  _c_int00                            
000039b0  __aeabi_memclr                      
000039b0  __aeabi_memclr4                     
000039b0  __aeabi_memclr8                     
000039b4  __aeabi_memset                      
000039b4  __aeabi_memset4                     
000039b4  __aeabi_memset8                     
000039c0  memset                              
00003a60  __TI_auto_init                      
00003b04  InitLEDs                            
00003b60  LED_Green                           
00003c40  copy_in                             
00003cc4  C$$EXIT                             
00003ccc  abort                               
00003cd8  exit                                
00003d3c  esmGroup1Notification               
00003d50  esmGroup2Notification               
00003d64  esmGroup3Notification               
00003d74  dmaGroupANotification               
00003d88  gioNotification                     
00003d9c  epcCAMFullNotification              
00003da0  epcFIFOFullNotification             
00003db0  _register_unlock                    
00003dbc  _register_lock                      
00003dc8  _nop                                
00003dd4  __TI_decompress_none                
00003de8  main                                
00003df8  __TI_decompress_rle24               
00003e00  phantomInterrupt                    
0000401c  __TI_Handler_Table_Base             
00004024  __TI_CINIT_Base                     
00004024  __TI_Handler_Table_Limit            
0000402c  __TI_CINIT_Limit                    
08001500  _lock                               
08001504  _unlock                             
08001508  __TI_cleanup_ptr                    
0800150c  __TI_dtors_ptr                      
ffffffff  __binit__                           
ffffffff  __c_args__                          
ffffffff  binit                               
UNDEFED   SHT$$INIT_ARRAY$$Base               
UNDEFED   SHT$$INIT_ARRAY$$Limit              

[149 symbols]
